target datalayout = "e-m:e-p270:32:32-p271:32:32-p272:64:64-i64:64-i128:128-f80:128-n8:16:32:64-S128"
target triple = "x86_64-pc-linux-gnu"

%struct._zend_array = type { %struct._zend_refcounted_h, %union.anon.0, i32, %union.anon.1, i32, i32, i32, i32, i64, ptr }
%struct._zend_refcounted_h = type { i32, %union.anon }
%union.anon = type { i32 }
%union.anon.0 = type { i32 }
%union.anon.1 = type { ptr }
%struct._zend_op_array = type { i8, [3 x i8], i32, ptr, ptr, ptr, i32, i32, ptr, ptr, ptr, ptr, i32, i32, i32, i32, ptr, ptr, ptr, ptr, ptr, i32, i32, ptr, ptr, ptr, i32, i32, i32, i32, ptr, ptr, [6 x ptr] }
%struct._zend_persistent_script = type { %struct._zend_script, i64, i32, i64, i8, i8, i8, i32, i32, ptr, ptr, ptr, i64, %struct.zend_persistent_script_dynamic_members }
%struct._zend_script = type { ptr, %struct._zend_op_array, %struct._zend_array, %struct._zend_array }
%struct.zend_persistent_script_dynamic_members = type { i64, i64, i32, i64 }
%struct._zend_error_info = type { i32, i32, ptr, ptr }

; Function Attrs: nounwind uwtable
define hidden void @free_persistent_script(ptr noundef %0, i32 noundef %1) #0 {
  %3 = alloca ptr, align 8
  %4 = alloca ptr, align 8
  %5 = alloca ptr, align 8
  %6 = alloca i32, align 4
  %7 = alloca i32, align 4
  %8 = alloca i32, align 4
  %9 = alloca i32, align 4
  %10 = alloca i32, align 4
  %11 = alloca ptr, align 8
  %12 = alloca ptr, align 8
  %13 = alloca ptr, align 8
  %14 = alloca i8, align 1
  %15 = alloca ptr, align 8
  %16 = alloca i32, align 4
  %17 = alloca i32, align 4
  %18 = alloca ptr, align 8
  store ptr %0, ptr %15, align 8
  store i32 %1, ptr %16, align 4
  %19 = load i32, ptr %16, align 4
  %20 = icmp ne i32 %19, 0
  br i1 %20, label %30, label %21

21:                                               ; preds = %2
  %22 = load ptr, ptr %15, align 8
  %23 = getelementptr inbounds %struct._zend_persistent_script, ptr %22, i32 0, i32 0
  %24 = getelementptr inbounds %struct._zend_script, ptr %23, i32 0, i32 2
  %25 = getelementptr inbounds %struct._zend_array, ptr %24, i32 0, i32 4
  store i32 0, ptr %25, align 8
  %26 = load ptr, ptr %15, align 8
  %27 = getelementptr inbounds %struct._zend_persistent_script, ptr %26, i32 0, i32 0
  %28 = getelementptr inbounds %struct._zend_script, ptr %27, i32 0, i32 3
  %29 = getelementptr inbounds %struct._zend_array, ptr %28, i32 0, i32 4
  store i32 0, ptr %29, align 8
  br label %34

30:                                               ; preds = %2
  %31 = load ptr, ptr %15, align 8
  %32 = getelementptr inbounds %struct._zend_persistent_script, ptr %31, i32 0, i32 0
  %33 = getelementptr inbounds %struct._zend_script, ptr %32, i32 0, i32 1
  call void @destroy_op_array(ptr noundef %33)
  br label %34

34:                                               ; preds = %30, %21
  %35 = load ptr, ptr %15, align 8
  %36 = getelementptr inbounds %struct._zend_persistent_script, ptr %35, i32 0, i32 0
  %37 = getelementptr inbounds %struct._zend_script, ptr %36, i32 0, i32 2
  call void @zend_hash_destroy(ptr noundef %37)
  %38 = load ptr, ptr %15, align 8
  %39 = getelementptr inbounds %struct._zend_persistent_script, ptr %38, i32 0, i32 0
  %40 = getelementptr inbounds %struct._zend_script, ptr %39, i32 0, i32 3
  call void @zend_hash_destroy(ptr noundef %40)
  %41 = load ptr, ptr %15, align 8
  %42 = getelementptr inbounds %struct._zend_persistent_script, ptr %41, i32 0, i32 0
  %43 = getelementptr inbounds %struct._zend_script, ptr %42, i32 0, i32 0
  %44 = load ptr, ptr %43, align 8
  %45 = icmp ne ptr %44, null
  br i1 %45, label %46, label %77

46:                                               ; preds = %34
  %47 = load ptr, ptr %15, align 8
  %48 = getelementptr inbounds %struct._zend_persistent_script, ptr %47, i32 0, i32 0
  %49 = getelementptr inbounds %struct._zend_script, ptr %48, i32 0, i32 0
  %50 = load ptr, ptr %49, align 8
  store ptr %50, ptr %13, align 8
  store i8 0, ptr %14, align 1
  %51 = load ptr, ptr %13, align 8
  %52 = getelementptr inbounds %struct._zend_refcounted_h, ptr %51, i32 0, i32 1
  %53 = load i32, ptr %52, align 4
  store i32 %53, ptr %6, align 4
  %54 = load i32, ptr %6, align 4
  %55 = and i32 %54, 1008
  %56 = and i32 %55, 64
  %57 = icmp ne i32 %56, 0
  br i1 %57, label %76, label %58

58:                                               ; preds = %46
  %59 = load ptr, ptr %13, align 8
  store ptr %59, ptr %3, align 8
  %60 = load ptr, ptr %3, align 8
  %61 = load i32, ptr %60, align 4
  %62 = icmp ugt i32 %61, 0
  call void @llvm.assume(i1 %62)
  %63 = load ptr, ptr %3, align 8
  %64 = load i32, ptr %63, align 4
  %65 = add i32 %64, -1
  store i32 %65, ptr %63, align 4
  %66 = icmp eq i32 %65, 0
  br i1 %66, label %67, label %75

67:                                               ; preds = %58
  %68 = load i8, ptr %14, align 1
  %69 = trunc i8 %68 to i1
  br i1 %69, label %70, label %72

70:                                               ; preds = %67
  %71 = load ptr, ptr %13, align 8
  call void @free(ptr noundef %71) #11
  br label %74

72:                                               ; preds = %67
  %73 = load ptr, ptr %13, align 8
  call void @_efree(ptr noundef %73) #11
  br label %74

74:                                               ; preds = %72, %70
  br label %75

75:                                               ; preds = %74, %58
  br label %76

76:                                               ; preds = %75, %46
  br label %77

77:                                               ; preds = %76, %34
  %78 = load ptr, ptr %15, align 8
  %79 = getelementptr inbounds %struct._zend_persistent_script, ptr %78, i32 0, i32 9
  %80 = load ptr, ptr %79, align 8
  %81 = icmp ne ptr %80, null
  br i1 %81, label %82, label %173

82:                                               ; preds = %77
  store i32 0, ptr %17, align 4
  br label %83

83:                                               ; preds = %166, %82
  %84 = load i32, ptr %17, align 4
  %85 = load ptr, ptr %15, align 8
  %86 = getelementptr inbounds %struct._zend_persistent_script, ptr %85, i32 0, i32 7
  %87 = load i32, ptr %86, align 4
  %88 = icmp ult i32 %84, %87
  br i1 %88, label %89, label %169

89:                                               ; preds = %83
  %90 = load ptr, ptr %15, align 8
  %91 = getelementptr inbounds %struct._zend_persistent_script, ptr %90, i32 0, i32 9
  %92 = load ptr, ptr %91, align 8
  %93 = load i32, ptr %17, align 4
  %94 = zext i32 %93 to i64
  %95 = getelementptr inbounds ptr, ptr %92, i64 %94
  %96 = load ptr, ptr %95, align 8
  store ptr %96, ptr %18, align 8
  %97 = load ptr, ptr %18, align 8
  %98 = getelementptr inbounds %struct._zend_error_info, ptr %97, i32 0, i32 2
  %99 = load ptr, ptr %98, align 8
  store ptr %99, ptr %11, align 8
  %100 = load ptr, ptr %11, align 8
  %101 = getelementptr inbounds %struct._zend_refcounted_h, ptr %100, i32 0, i32 1
  %102 = load i32, ptr %101, align 4
  store i32 %102, ptr %9, align 4
  %103 = load i32, ptr %9, align 4
  %104 = and i32 %103, 1008
  %105 = and i32 %104, 64
  %106 = icmp ne i32 %105, 0
  br i1 %106, label %130, label %107

107:                                              ; preds = %89
  %108 = load ptr, ptr %11, align 8
  store ptr %108, ptr %5, align 8
  %109 = load ptr, ptr %5, align 8
  %110 = load i32, ptr %109, align 4
  %111 = icmp ugt i32 %110, 0
  call void @llvm.assume(i1 %111)
  %112 = load ptr, ptr %5, align 8
  %113 = load i32, ptr %112, align 4
  %114 = add i32 %113, -1
  store i32 %114, ptr %112, align 4
  %115 = icmp eq i32 %114, 0
  br i1 %115, label %116, label %129

116:                                              ; preds = %107
  %117 = load ptr, ptr %11, align 8
  %118 = getelementptr inbounds %struct._zend_refcounted_h, ptr %117, i32 0, i32 1
  %119 = load i32, ptr %118, align 4
  store i32 %119, ptr %10, align 4
  %120 = load i32, ptr %10, align 4
  %121 = and i32 %120, 1008
  %122 = and i32 %121, 128
  %123 = icmp ne i32 %122, 0
  br i1 %123, label %124, label %126

124:                                              ; preds = %116
  %125 = load ptr, ptr %11, align 8
  call void @free(ptr noundef %125) #11
  br label %128

126:                                              ; preds = %116
  %127 = load ptr, ptr %11, align 8
  call void @_efree(ptr noundef %127) #11
  br label %128

128:                                              ; preds = %126, %124
  br label %129

129:                                              ; preds = %128, %107
  br label %130

130:                                              ; preds = %129, %89
  %131 = load ptr, ptr %18, align 8
  %132 = getelementptr inbounds %struct._zend_error_info, ptr %131, i32 0, i32 3
  %133 = load ptr, ptr %132, align 8
  store ptr %133, ptr %12, align 8
  %134 = load ptr, ptr %12, align 8
  %135 = getelementptr inbounds %struct._zend_refcounted_h, ptr %134, i32 0, i32 1
  %136 = load i32, ptr %135, align 4
  store i32 %136, ptr %7, align 4
  %137 = load i32, ptr %7, align 4
  %138 = and i32 %137, 1008
  %139 = and i32 %138, 64
  %140 = icmp ne i32 %139, 0
  br i1 %140, label %164, label %141

141:                                              ; preds = %130
  %142 = load ptr, ptr %12, align 8
  store ptr %142, ptr %4, align 8
  %143 = load ptr, ptr %4, align 8
  %144 = load i32, ptr %143, align 4
  %145 = icmp ugt i32 %144, 0
  call void @llvm.assume(i1 %145)
  %146 = load ptr, ptr %4, align 8
  %147 = load i32, ptr %146, align 4
  %148 = add i32 %147, -1
  store i32 %148, ptr %146, align 4
  %149 = icmp eq i32 %148, 0
  br i1 %149, label %150, label %163

150:                                              ; preds = %141
  %151 = load ptr, ptr %12, align 8
  %152 = getelementptr inbounds %struct._zend_refcounted_h, ptr %151, i32 0, i32 1
  %153 = load i32, ptr %152, align 4
  store i32 %153, ptr %8, align 4
  %154 = load i32, ptr %8, align 4
  %155 = and i32 %154, 1008
  %156 = and i32 %155, 128
  %157 = icmp ne i32 %156, 0
  br i1 %157, label %158, label %160

158:                                              ; preds = %150
  %159 = load ptr, ptr %12, align 8
  call void @free(ptr noundef %159) #11
  br label %162

160:                                              ; preds = %150
  %161 = load ptr, ptr %12, align 8
  call void @_efree(ptr noundef %161) #11
  br label %162

162:                                              ; preds = %160, %158
  br label %163

163:                                              ; preds = %162, %141
  br label %164

164:                                              ; preds = %163, %130
  %165 = load ptr, ptr %18, align 8
  call void @_efree(ptr noundef %165)
  br label %166

166:                                              ; preds = %164
  %167 = load i32, ptr %17, align 4
  %168 = add i32 %167, 1
  store i32 %168, ptr %17, align 4
  br label %83

169:                                              ; preds = %83
  %170 = load ptr, ptr %15, align 8
  %171 = getelementptr inbounds %struct._zend_persistent_script, ptr %170, i32 0, i32 9
  %172 = load ptr, ptr %171, align 8
  call void @_efree(ptr noundef %172)
  br label %173

173:                                              ; preds = %169, %77
  %174 = load ptr, ptr %15, align 8
  call void @zend_accel_free_delayed_early_binding_list(ptr noundef %174)
  %175 = load ptr, ptr %15, align 8
  call void @_efree(ptr noundef %175)
  ret void
}