; Function Attrs: nounwind uwtable
define hidden void @free_persistent_script(ptr noundef %0, i32 noundef %1) local_unnamed_addr #0 {
  %.not = icmp eq i32 %1, 0
  br i1 %.not, label %3, label %6

3:                                                ; preds = %2
  %4 = getelementptr inbounds i8, ptr %0, i64 272
  store i32 0, ptr %4, align 8
  %5 = getelementptr inbounds i8, ptr %0, i64 328
  store i32 0, ptr %5, align 8
  br label %8

6:                                                ; preds = %2
  %7 = getelementptr inbounds i8, ptr %0, i64 8
  tail call void @destroy_op_array(ptr noundef nonnull %7) #10
  br label %8

8:                                                ; preds = %6, %3
  %9 = getelementptr inbounds i8, ptr %0, i64 248
  tail call void @zend_hash_destroy(ptr noundef nonnull %9) #10
  %10 = getelementptr inbounds i8, ptr %0, i64 304
  tail call void @zend_hash_destroy(ptr noundef nonnull %10) #10
  %11 = load ptr, ptr %0, align 8
  %.not46 = icmp eq ptr %11, null
  br i1 %.not46, label %22, label %12

12:                                               ; preds = %8
  %13 = getelementptr inbounds i8, ptr %11, i64 4
  %14 = load i32, ptr %13, align 4
  %15 = and i32 %14, 64
  %.not47 = icmp eq i32 %15, 0
  br i1 %.not47, label %16, label %22

16:                                               ; preds = %12
  %17 = load i32, ptr %11, align 4
  %18 = icmp ne i32 %17, 0
  tail call void @llvm.assume(i1 %18)
  %19 = add i32 %17, -1
  store i32 %19, ptr %11, align 4
  %20 = icmp eq i32 %19, 0
  br i1 %20, label %21, label %22

21:                                               ; preds = %16
  tail call void @_efree(ptr noundef nonnull %11) #10
  br label %22

22:                                               ; preds = %12, %21, %16, %8
  %23 = getelementptr inbounds i8, ptr %0, i64 400
  %24 = load ptr, ptr %23, align 8
  %.not48 = icmp eq ptr %24, null
  br i1 %.not48, label %64, label %.preheader

.preheader:                                       ; preds = %22
  %25 = getelementptr inbounds i8, ptr %0, i64 388
  %26 = load i32, ptr %25, align 4
  %.not54 = icmp eq i32 %26, 0
  br i1 %.not54, label %._crit_edge, label %.lr.ph

.lr.ph:                                           ; preds = %.preheader, %59
  %indvars.iv = phi i64 [ %indvars.iv.next, %59 ], [ 0, %.preheader ]
  %27 = load ptr, ptr %23, align 8
  %28 = getelementptr inbounds ptr, ptr %27, i64 %indvars.iv
  %29 = load ptr, ptr %28, align 8
  %30 = getelementptr inbounds i8, ptr %29, i64 8
  %31 = load ptr, ptr %30, align 8
  %32 = getelementptr inbounds i8, ptr %31, i64 4
  %33 = load i32, ptr %32, align 4
  %34 = and i32 %33, 64
  %.not49 = icmp eq i32 %34, 0
  br i1 %.not49, label %35, label %44

35:                                               ; preds = %.lr.ph
  %36 = load i32, ptr %31, align 4
  %37 = icmp ne i32 %36, 0
  tail call void @llvm.assume(i1 %37)
  %38 = add i32 %36, -1
  store i32 %38, ptr %31, align 4
  %39 = icmp eq i32 %38, 0
  br i1 %39, label %40, label %44

40:                                               ; preds = %35
  %41 = and i32 %33, 128
  %.not50 = icmp eq i32 %41, 0
  br i1 %.not50, label %43, label %42

42:                                               ; preds = %40
  tail call void @free(ptr noundef nonnull %31) #10
  br label %44

43:                                               ; preds = %40
  tail call void @_efree(ptr noundef nonnull %31) #10
  br label %44

44:                                               ; preds = %35, %43, %42, %.lr.ph
  %45 = getelementptr inbounds i8, ptr %29, i64 16
  %46 = load ptr, ptr %45, align 8
  %47 = getelementptr inbounds i8, ptr %46, i64 4
  %48 = load i32, ptr %47, align 4
  %49 = and i32 %48, 64
  %.not51 = icmp eq i32 %49, 0
  br i1 %.not51, label %50, label %59

50:                                               ; preds = %44
  %51 = load i32, ptr %46, align 4
  %52 = icmp ne i32 %51, 0
  tail call void @llvm.assume(i1 %52)
  %53 = add i32 %51, -1
  store i32 %53, ptr %46, align 4
  %54 = icmp eq i32 %53, 0
  br i1 %54, label %55, label %59

55:                                               ; preds = %50
  %56 = and i32 %48, 128
  %.not52 = icmp eq i32 %56, 0
  br i1 %.not52, label %58, label %57

57:                                               ; preds = %55
  tail call void @free(ptr noundef nonnull %46) #10
  br label %59

58:                                               ; preds = %55
  tail call void @_efree(ptr noundef nonnull %46) #10
  br label %59

59:                                               ; preds = %50, %58, %57, %44
  tail call void @_efree(ptr noundef nonnull %29) #10
  %indvars.iv.next = add nuw nsw i64 %indvars.iv, 1
  %60 = load i32, ptr %25, align 4
  %61 = zext i32 %60 to i64
  %62 = icmp ult i64 %indvars.iv.next, %61
  br i1 %62, label %.lr.ph, label %._crit_edge.loopexit

._crit_edge.loopexit:                             ; preds = %59
  %.pre = load ptr, ptr %23, align 8
  br label %._crit_edge

._crit_edge:                                      ; preds = %._crit_edge.loopexit, %.preheader
  %63 = phi ptr [ %.pre, %._crit_edge.loopexit ], [ %24, %.preheader ]
  tail call void @_efree(ptr noundef %63) #10
  br label %64

64:                                               ; preds = %._crit_edge, %22
  tail call void @zend_accel_free_delayed_early_binding_list(ptr noundef nonnull %0)
  tail call void @_efree(ptr noundef nonnull %0) #10
  ret void
}